target datalayout = "e-m:e-p270:32:32-p271:32:32-p272:64:64-i64:64-i128:128-f80:128-n8:16:32:64-S128"
target triple = "x86_64-pc-linux-gnu"

@cmd = internal global ptr null, align 8
@stderr = external global ptr, align 8
@stdout = external global ptr, align 8
@.str.10 = private unnamed_addr constant [13 x i8] c"in flag -%c\0A\00", align 1
@Usage = internal global ptr @.str.18, align 8

; Function Attrs: nounwind uwtable
define internal void @usage(i32 noundef %0) #0 {
  %2 = alloca i32, align 4
  store i32 %0, ptr %2, align 4, !tbaa !4
  %3 = load i32, ptr %2, align 4, !tbaa !4
  %4 = icmp ne i32 %3, 0
  br i1 %4, label %5, label %7

5:                                                ; preds = %1
  %6 = load ptr, ptr @stderr, align 8, !tbaa !31
  br label %9

7:                                                ; preds = %1
  %8 = load ptr, ptr @stdout, align 8, !tbaa !31
  br label %9

9:                                                ; preds = %7, %5
  %10 = phi ptr [ %6, %5 ], [ %8, %7 ]
  %11 = load ptr, ptr @Usage, align 8, !tbaa !30
  %12 = load ptr, ptr @cmd, align 8, !tbaa !30
  %13 = call i32 (ptr, ptr, ...) @fprintf(ptr noundef %10, ptr noundef %11, ptr noundef %12) #8
  %14 = load i32, ptr %2, align 4, !tbaa !4
  call void @graphviz_exit(i32 noundef %14) #9
  unreachable
}

; Function Attrs: nounwind uwtable
define internal void @errexit(i32 noundef %0) #0 {
  %2 = alloca i32, align 4
  store i32 %0, ptr %2, align 4, !tbaa !4
  %3 = load ptr, ptr @stderr, align 8, !tbaa !31
  %4 = load i32, ptr %2, align 4, !tbaa !4
  %5 = trunc i32 %4 to i8
  %6 = sext i8 %5 to i32
  %7 = call i32 (ptr, ptr, ...) @fprintf(ptr noundef %3, ptr noundef @.str.10, i32 noundef %6) #8
  call void @usage(i32 noundef 1)
  ret void
}