; Function Attrs: cold nofree noreturn nounwind uwtable
define internal fastcc void @errexit(i32 noundef range(i32 0, -1) %0) unnamed_addr #7 {
  %2 = load ptr, ptr @stderr, align 8, !tbaa !18
  %sext = shl i32 %0, 24
  %3 = ashr exact i32 %sext, 24
  %4 = tail call i32 (ptr, ptr, ...) @fprintf(ptr noundef %2, ptr noundef nonnull @.str.10, i32 noundef %3) #12
  %5 = load ptr, ptr @stderr, align 8
  %6 = load ptr, ptr @cmd, align 8, !tbaa !14
  %7 = tail call i32 (ptr, ptr, ...) @fprintf(ptr noundef %5, ptr noundef nonnull @.str.18, ptr noundef %6) #12
  tail call fastcc void @graphviz_exit(i32 noundef 1) #14
  unreachable
}